target datalayout = "e-m:e-p270:32:32-p271:32:32-p272:64:64-i64:64-i128:128-f80:128-n8:16:32:64-S128"
target triple = "x86_64-pc-linux-gnu"

%struct.GetBitContext = type { ptr, ptr, i32, i32, i32 }

@ff_interleaved_golomb_vlc_len = external constant [256 x i8], align 16
@ff_interleaved_ue_golomb_vlc_code = external constant [256 x i8], align 16
@ff_interleaved_dirac_golomb_vlc_code = external constant [256 x i8], align 16

; Function Attrs: alwaysinline nounwind willreturn memory(none) uwtable
define internal i32 @av_bswap32(i32 noundef %0) #5 {
  %2 = alloca i32, align 4
  store i32 %0, ptr %2, align 4, !tbaa !47
  %3 = load i32, ptr %2, align 4, !tbaa !47
  %4 = shl i32 %3, 8
  %5 = and i32 %4, 65280
  %6 = load i32, ptr %2, align 4, !tbaa !47
  %7 = lshr i32 %6, 8
  %8 = and i32 %7, 255
  %9 = or i32 %5, %8
  %10 = shl i32 %9, 16
  %11 = load i32, ptr %2, align 4, !tbaa !47
  %12 = lshr i32 %11, 16
  %13 = shl i32 %12, 8
  %14 = and i32 %13, 65280
  %15 = load i32, ptr %2, align 4, !tbaa !47
  %16 = lshr i32 %15, 16
  %17 = lshr i32 %16, 8
  %18 = and i32 %17, 255
  %19 = or i32 %14, %18
  %20 = or i32 %10, %19
  ret i32 %20
}

; Function Attrs: inlinehint nounwind uwtable
define internal i32 @get_interleaved_ue_golomb(ptr noundef %0) #6 {
  %2 = alloca i32, align 4
  %3 = alloca ptr, align 8
  %4 = alloca i32, align 4
  %5 = alloca i32, align 4
  %6 = alloca i32, align 4
  %7 = alloca i32, align 4
  %8 = alloca i32, align 4
  %9 = alloca i32, align 4
  store ptr %0, ptr %3, align 8, !tbaa !124
  call void @llvm.lifetime.start.p0(i64 4, ptr %4) #12
  call void @llvm.lifetime.start.p0(i64 4, ptr %5) #12
  %10 = load ptr, ptr %3, align 8, !tbaa !124
  %11 = getelementptr inbounds nuw %struct.GetBitContext, ptr %10, i32 0, i32 2
  %12 = load i32, ptr %11, align 8, !tbaa !130
  store i32 %12, ptr %5, align 4, !tbaa !47
  call void @llvm.lifetime.start.p0(i64 4, ptr %6) #12
  call void @llvm.lifetime.start.p0(i64 4, ptr %7) #12
  %13 = load ptr, ptr %3, align 8, !tbaa !124
  %14 = getelementptr inbounds nuw %struct.GetBitContext, ptr %13, i32 0, i32 4
  %15 = load i32, ptr %14, align 8, !tbaa !128
  store i32 %15, ptr %7, align 4, !tbaa !47
  %16 = load ptr, ptr %3, align 8, !tbaa !124
  %17 = getelementptr inbounds nuw %struct.GetBitContext, ptr %16, i32 0, i32 0
  %18 = load ptr, ptr %17, align 8, !tbaa !126
  %19 = load i32, ptr %5, align 4, !tbaa !47
  %20 = lshr i32 %19, 3
  %21 = zext i32 %20 to i64
  %22 = getelementptr inbounds nuw i8, ptr %18, i64 %21
  %23 = load i32, ptr %22, align 1, !tbaa !64
  %24 = call i32 @av_bswap32(i32 noundef %23) #13
  %25 = load i32, ptr %5, align 4, !tbaa !47
  %26 = and i32 %25, 7
  %27 = shl i32 %24, %26
  %28 = lshr i32 %27, 0
  store i32 %28, ptr %6, align 4, !tbaa !47
  %29 = load i32, ptr %6, align 4, !tbaa !47
  store i32 %29, ptr %4, align 4, !tbaa !47
  %30 = load i32, ptr %4, align 4, !tbaa !47
  %31 = and i32 %30, -1434451968
  %32 = icmp ne i32 %31, 0
  br i1 %32, label %33, label %65

33:                                               ; preds = %1
  %34 = load i32, ptr %4, align 4, !tbaa !47
  %35 = lshr i32 %34, 24
  store i32 %35, ptr %4, align 4, !tbaa !47
  %36 = load i32, ptr %7, align 4, !tbaa !47
  %37 = load i32, ptr %5, align 4, !tbaa !47
  %38 = load i32, ptr %4, align 4, !tbaa !47
  %39 = zext i32 %38 to i64
  %40 = getelementptr inbounds nuw [256 x i8], ptr @ff_interleaved_golomb_vlc_len, i64 0, i64 %39
  %41 = load i8, ptr %40, align 1, !tbaa !64
  %42 = zext i8 %41 to i32
  %43 = add i32 %37, %42
  %44 = icmp ugt i32 %36, %43
  br i1 %44, label %45, label %53

45:                                               ; preds = %33
  %46 = load i32, ptr %5, align 4, !tbaa !47
  %47 = load i32, ptr %4, align 4, !tbaa !47
  %48 = zext i32 %47 to i64
  %49 = getelementptr inbounds nuw [256 x i8], ptr @ff_interleaved_golomb_vlc_len, i64 0, i64 %48
  %50 = load i8, ptr %49, align 1, !tbaa !64
  %51 = zext i8 %50 to i32
  %52 = add i32 %46, %51
  br label %55

53:                                               ; preds = %33
  %54 = load i32, ptr %7, align 4, !tbaa !47
  br label %55

55:                                               ; preds = %53, %45
  %56 = phi i32 [ %52, %45 ], [ %54, %53 ]
  store i32 %56, ptr %5, align 4, !tbaa !47
  %57 = load i32, ptr %5, align 4, !tbaa !47
  %58 = load ptr, ptr %3, align 8, !tbaa !124
  %59 = getelementptr inbounds nuw %struct.GetBitContext, ptr %58, i32 0, i32 2
  store i32 %57, ptr %59, align 8, !tbaa !130
  %60 = load i32, ptr %4, align 4, !tbaa !47
  %61 = zext i32 %60 to i64
  %62 = getelementptr inbounds nuw [256 x i8], ptr @ff_interleaved_ue_golomb_vlc_code, i64 0, i64 %61
  %63 = load i8, ptr %62, align 1, !tbaa !64
  %64 = zext i8 %63 to i32
  store i32 %64, ptr %2, align 4
  store i32 1, ptr %8, align 4
  br label %171

65:                                               ; preds = %1
  call void @llvm.lifetime.start.p0(i64 4, ptr %9) #12
  store i32 1, ptr %9, align 4, !tbaa !47
  br label %66

66:                                               ; preds = %163, %65
  %67 = load i32, ptr %4, align 4, !tbaa !47
  %68 = lshr i32 %67, 24
  store i32 %68, ptr %4, align 4, !tbaa !47
  %69 = load i32, ptr %7, align 4, !tbaa !47
  %70 = load i32, ptr %5, align 4, !tbaa !47
  %71 = load i32, ptr %4, align 4, !tbaa !47
  %72 = zext i32 %71 to i64
  %73 = getelementptr inbounds nuw [256 x i8], ptr @ff_interleaved_golomb_vlc_len, i64 0, i64 %72
  %74 = load i8, ptr %73, align 1, !tbaa !64
  %75 = zext i8 %74 to i32
  %76 = icmp sgt i32 %75, 8
  br i1 %76, label %77, label %78

77:                                               ; preds = %66
  br label %84

78:                                               ; preds = %66
  %79 = load i32, ptr %4, align 4, !tbaa !47
  %80 = zext i32 %79 to i64
  %81 = getelementptr inbounds nuw [256 x i8], ptr @ff_interleaved_golomb_vlc_len, i64 0, i64 %80
  %82 = load i8, ptr %81, align 1, !tbaa !64
  %83 = zext i8 %82 to i32
  br label %84

84:                                               ; preds = %78, %77
  %85 = phi i32 [ 8, %77 ], [ %83, %78 ]
  %86 = add i32 %70, %85
  %87 = icmp ugt i32 %69, %86
  br i1 %87, label %88, label %106

88:                                               ; preds = %84
  %89 = load i32, ptr %5, align 4, !tbaa !47
  %90 = load i32, ptr %4, align 4, !tbaa !47
  %91 = zext i32 %90 to i64
  %92 = getelementptr inbounds nuw [256 x i8], ptr @ff_interleaved_golomb_vlc_len, i64 0, i64 %91
  %93 = load i8, ptr %92, align 1, !tbaa !64
  %94 = zext i8 %93 to i32
  %95 = icmp sgt i32 %94, 8
  br i1 %95, label %96, label %97

96:                                               ; preds = %88
  br label %103

97:                                               ; preds = %88
  %98 = load i32, ptr %4, align 4, !tbaa !47
  %99 = zext i32 %98 to i64
  %100 = getelementptr inbounds nuw [256 x i8], ptr @ff_interleaved_golomb_vlc_len, i64 0, i64 %99
  %101 = load i8, ptr %100, align 1, !tbaa !64
  %102 = zext i8 %101 to i32
  br label %103

103:                                              ; preds = %97, %96
  %104 = phi i32 [ 8, %96 ], [ %102, %97 ]
  %105 = add i32 %89, %104
  br label %108

106:                                              ; preds = %84
  %107 = load i32, ptr %7, align 4, !tbaa !47
  br label %108

108:                                              ; preds = %106, %103
  %109 = phi i32 [ %105, %103 ], [ %107, %106 ]
  store i32 %109, ptr %5, align 4, !tbaa !47
  %110 = load i32, ptr %4, align 4, !tbaa !47
  %111 = zext i32 %110 to i64
  %112 = getelementptr inbounds nuw [256 x i8], ptr @ff_interleaved_golomb_vlc_len, i64 0, i64 %111
  %113 = load i8, ptr %112, align 1, !tbaa !64
  %114 = zext i8 %113 to i32
  %115 = icmp ne i32 %114, 9
  br i1 %115, label %116, label %133

116:                                              ; preds = %108
  %117 = load i32, ptr %4, align 4, !tbaa !47
  %118 = zext i32 %117 to i64
  %119 = getelementptr inbounds nuw [256 x i8], ptr @ff_interleaved_golomb_vlc_len, i64 0, i64 %118
  %120 = load i8, ptr %119, align 1, !tbaa !64
  %121 = zext i8 %120 to i32
  %122 = sub nsw i32 %121, 1
  %123 = ashr i32 %122, 1
  %124 = load i32, ptr %9, align 4, !tbaa !47
  %125 = shl i32 %124, %123
  store i32 %125, ptr %9, align 4, !tbaa !47
  %126 = load i32, ptr %4, align 4, !tbaa !47
  %127 = zext i32 %126 to i64
  %128 = getelementptr inbounds nuw [256 x i8], ptr @ff_interleaved_dirac_golomb_vlc_code, i64 0, i64 %127
  %129 = load i8, ptr %128, align 1, !tbaa !64
  %130 = zext i8 %129 to i32
  %131 = load i32, ptr %9, align 4, !tbaa !47
  %132 = or i32 %131, %130
  store i32 %132, ptr %9, align 4, !tbaa !47
  br label %165

133:                                              ; preds = %108
  %134 = load i32, ptr %9, align 4, !tbaa !47
  %135 = shl i32 %134, 4
  %136 = load i32, ptr %4, align 4, !tbaa !47
  %137 = zext i32 %136 to i64
  %138 = getelementptr inbounds nuw [256 x i8], ptr @ff_interleaved_dirac_golomb_vlc_code, i64 0, i64 %137
  %139 = load i8, ptr %138, align 1, !tbaa !64
  %140 = zext i8 %139 to i32
  %141 = or i32 %135, %140
  store i32 %141, ptr %9, align 4, !tbaa !47
  %142 = load ptr, ptr %3, align 8, !tbaa !124
  %143 = getelementptr inbounds nuw %struct.GetBitContext, ptr %142, i32 0, i32 0
  %144 = load ptr, ptr %143, align 8, !tbaa !126
  %145 = load i32, ptr %5, align 4, !tbaa !47
  %146 = lshr i32 %145, 3
  %147 = zext i32 %146 to i64
  %148 = getelementptr inbounds nuw i8, ptr %144, i64 %147
  %149 = load i32, ptr %148, align 1, !tbaa !64
  %150 = call i32 @av_bswap32(i32 noundef %149) #13
  %151 = load i32, ptr %5, align 4, !tbaa !47
  %152 = and i32 %151, 7
  %153 = shl i32 %150, %152
  %154 = lshr i32 %153, 0
  store i32 %154, ptr %6, align 4, !tbaa !47
  %155 = load i32, ptr %6, align 4, !tbaa !47
  store i32 %155, ptr %4, align 4, !tbaa !47
  br label %156

156:                                              ; preds = %133
  %157 = load i32, ptr %9, align 4, !tbaa !47
  %158 = icmp ult i32 %157, 134217728
  br i1 %158, label %159, label %163

159:                                              ; preds = %156
  %160 = load i32, ptr %5, align 4, !tbaa !47
  %161 = load i32, ptr %7, align 4, !tbaa !47
  %162 = icmp ult i32 %160, %161
  br label %163

163:                                              ; preds = %159, %156
  %164 = phi i1 [ false, %156 ], [ %162, %159 ]
  br i1 %164, label %66, label %165, !llvm.loop !235

165:                                              ; preds = %163, %116
  %166 = load i32, ptr %5, align 4, !tbaa !47
  %167 = load ptr, ptr %3, align 8, !tbaa !124
  %168 = getelementptr inbounds nuw %struct.GetBitContext, ptr %167, i32 0, i32 2
  store i32 %166, ptr %168, align 8, !tbaa !130
  %169 = load i32, ptr %9, align 4, !tbaa !47
  %170 = sub i32 %169, 1
  store i32 %170, ptr %2, align 4
  store i32 1, ptr %8, align 4
  call void @llvm.lifetime.end.p0(i64 4, ptr %9) #12
  br label %171

171:                                              ; preds = %165, %55
  call void @llvm.lifetime.end.p0(i64 4, ptr %7) #12
  call void @llvm.lifetime.end.p0(i64 4, ptr %6) #12
  call void @llvm.lifetime.end.p0(i64 4, ptr %5) #12
  call void @llvm.lifetime.end.p0(i64 4, ptr %4) #12
  %172 = load i32, ptr %2, align 4
  ret i32 %172
}